target datalayout = "e-m:e-p270:32:32-p271:32:32-p272:64:64-i64:64-i128:128-f80:128-n8:16:32:64-S128"
target triple = "x86_64-pc-linux-gnu"

%struct.jpeg_compress_struct = type { ptr, ptr, ptr, ptr, i32, i32, ptr, i32, i32, i32, i32, double, i32, i32, i32, ptr, [4 x ptr], [4 x ptr], [4 x ptr], [16 x i8], [16 x i8], [16 x i8], i32, ptr, i32, i32, i32, i32, i32, i32, i32, i32, i32, i8, i8, i8, i16, i16, i32, i32, i32, i32, i32, i32, i32, [4 x ptr], i32, i32, i32, [10 x i32], i32, i32, i32, i32, ptr, ptr, ptr, ptr, ptr, ptr, ptr, ptr, ptr, ptr, i32 }
%struct.my_color_converter = type { %struct.jpeg_color_converter, ptr }
%struct.jpeg_color_converter = type { ptr, ptr, ptr, ptr }

; Function Attrs: nounwind uwtable
define internal void @cmyk_ycck_convert(ptr noundef %0, ptr noundef %1, ptr noundef %2, i32 noundef %3, i32 noundef %4) #0 {
  %6 = alloca ptr, align 8
  %7 = alloca ptr, align 8
  %8 = alloca ptr, align 8
  %9 = alloca i32, align 4
  %10 = alloca i32, align 4
  %11 = alloca ptr, align 8
  %12 = alloca i32, align 4
  %13 = alloca i32, align 4
  %14 = alloca i32, align 4
  %15 = alloca ptr, align 8
  %16 = alloca ptr, align 8
  %17 = alloca ptr, align 8
  %18 = alloca ptr, align 8
  %19 = alloca ptr, align 8
  %20 = alloca ptr, align 8
  %21 = alloca i32, align 4
  %22 = alloca i32, align 4
  store ptr %0, ptr %6, align 8, !tbaa !3
  store ptr %1, ptr %7, align 8, !tbaa !51
  store ptr %2, ptr %8, align 8, !tbaa !52
  store i32 %3, ptr %9, align 4, !tbaa !47
  store i32 %4, ptr %10, align 4, !tbaa !47
  call void @llvm.lifetime.start.p0(i64 8, ptr %11) #4
  %23 = load ptr, ptr %6, align 8, !tbaa !3
  %24 = getelementptr inbounds nuw %struct.jpeg_compress_struct, ptr %23, i32 0, i32 59
  %25 = load ptr, ptr %24, align 8, !tbaa !40
  store ptr %25, ptr %11, align 8, !tbaa !39
  call void @llvm.lifetime.start.p0(i64 4, ptr %12) #4
  call void @llvm.lifetime.start.p0(i64 4, ptr %13) #4
  call void @llvm.lifetime.start.p0(i64 4, ptr %14) #4
  call void @llvm.lifetime.start.p0(i64 8, ptr %15) #4
  %26 = load ptr, ptr %11, align 8, !tbaa !39
  %27 = getelementptr inbounds nuw %struct.my_color_converter, ptr %26, i32 0, i32 1
  %28 = load ptr, ptr %27, align 8, !tbaa !61
  store ptr %28, ptr %15, align 8, !tbaa !60
  call void @llvm.lifetime.start.p0(i64 8, ptr %16) #4
  call void @llvm.lifetime.start.p0(i64 8, ptr %17) #4
  call void @llvm.lifetime.start.p0(i64 8, ptr %18) #4
  call void @llvm.lifetime.start.p0(i64 8, ptr %19) #4
  call void @llvm.lifetime.start.p0(i64 8, ptr %20) #4
  call void @llvm.lifetime.start.p0(i64 4, ptr %21) #4
  call void @llvm.lifetime.start.p0(i64 4, ptr %22) #4
  %29 = load ptr, ptr %6, align 8, !tbaa !3
  %30 = getelementptr inbounds nuw %struct.jpeg_compress_struct, ptr %29, i32 0, i32 7
  %31 = load i32, ptr %30, align 8, !tbaa !54
  store i32 %31, ptr %22, align 4, !tbaa !47
  br label %32

32:                                               ; preds = %180, %5
  %33 = load i32, ptr %10, align 4, !tbaa !47
  %34 = add nsw i32 %33, -1
  store i32 %34, ptr %10, align 4, !tbaa !47
  %35 = icmp sge i32 %34, 0
  br i1 %35, label %36, label %181

36:                                               ; preds = %32
  %37 = load ptr, ptr %7, align 8, !tbaa !51
  %38 = getelementptr inbounds nuw ptr, ptr %37, i32 1
  store ptr %38, ptr %7, align 8, !tbaa !51
  %39 = load ptr, ptr %37, align 8, !tbaa !55
  store ptr %39, ptr %16, align 8, !tbaa !55
  %40 = load ptr, ptr %8, align 8, !tbaa !52
  %41 = getelementptr inbounds ptr, ptr %40, i64 0
  %42 = load ptr, ptr %41, align 8, !tbaa !51
  %43 = load i32, ptr %9, align 4, !tbaa !47
  %44 = zext i32 %43 to i64
  %45 = getelementptr inbounds nuw ptr, ptr %42, i64 %44
  %46 = load ptr, ptr %45, align 8, !tbaa !55
  store ptr %46, ptr %17, align 8, !tbaa !55
  %47 = load ptr, ptr %8, align 8, !tbaa !52
  %48 = getelementptr inbounds ptr, ptr %47, i64 1
  %49 = load ptr, ptr %48, align 8, !tbaa !51
  %50 = load i32, ptr %9, align 4, !tbaa !47
  %51 = zext i32 %50 to i64
  %52 = getelementptr inbounds nuw ptr, ptr %49, i64 %51
  %53 = load ptr, ptr %52, align 8, !tbaa !55
  store ptr %53, ptr %18, align 8, !tbaa !55
  %54 = load ptr, ptr %8, align 8, !tbaa !52
  %55 = getelementptr inbounds ptr, ptr %54, i64 2
  %56 = load ptr, ptr %55, align 8, !tbaa !51
  %57 = load i32, ptr %9, align 4, !tbaa !47
  %58 = zext i32 %57 to i64
  %59 = getelementptr inbounds nuw ptr, ptr %56, i64 %58
  %60 = load ptr, ptr %59, align 8, !tbaa !55
  store ptr %60, ptr %19, align 8, !tbaa !55
  %61 = load ptr, ptr %8, align 8, !tbaa !52
  %62 = getelementptr inbounds ptr, ptr %61, i64 3
  %63 = load ptr, ptr %62, align 8, !tbaa !51
  %64 = load i32, ptr %9, align 4, !tbaa !47
  %65 = zext i32 %64 to i64
  %66 = getelementptr inbounds nuw ptr, ptr %63, i64 %65
  %67 = load ptr, ptr %66, align 8, !tbaa !55
  store ptr %67, ptr %20, align 8, !tbaa !55
  %68 = load i32, ptr %9, align 4, !tbaa !47
  %69 = add i32 %68, 1
  store i32 %69, ptr %9, align 4, !tbaa !47
  store i32 0, ptr %21, align 4, !tbaa !47
  br label %70

70:                                               ; preds = %177, %36
  %71 = load i32, ptr %21, align 4, !tbaa !47
  %72 = load i32, ptr %22, align 4, !tbaa !47
  %73 = icmp ult i32 %71, %72
  br i1 %73, label %74, label %180

74:                                               ; preds = %70
  %75 = load ptr, ptr %16, align 8, !tbaa !55
  %76 = getelementptr inbounds i8, ptr %75, i64 0
  %77 = load i8, ptr %76, align 1, !tbaa !34
  %78 = zext i8 %77 to i32
  %79 = sub nsw i32 255, %78
  store i32 %79, ptr %12, align 4, !tbaa !47
  %80 = load ptr, ptr %16, align 8, !tbaa !55
  %81 = getelementptr inbounds i8, ptr %80, i64 1
  %82 = load i8, ptr %81, align 1, !tbaa !34
  %83 = zext i8 %82 to i32
  %84 = sub nsw i32 255, %83
  store i32 %84, ptr %13, align 4, !tbaa !47
  %85 = load ptr, ptr %16, align 8, !tbaa !55
  %86 = getelementptr inbounds i8, ptr %85, i64 2
  %87 = load i8, ptr %86, align 1, !tbaa !34
  %88 = zext i8 %87 to i32
  %89 = sub nsw i32 255, %88
  store i32 %89, ptr %14, align 4, !tbaa !47
  %90 = load ptr, ptr %16, align 8, !tbaa !55
  %91 = getelementptr inbounds i8, ptr %90, i64 3
  %92 = load i8, ptr %91, align 1, !tbaa !34
  %93 = load ptr, ptr %20, align 8, !tbaa !55
  %94 = load i32, ptr %21, align 4, !tbaa !47
  %95 = zext i32 %94 to i64
  %96 = getelementptr inbounds nuw i8, ptr %93, i64 %95
  store i8 %92, ptr %96, align 1, !tbaa !34
  %97 = load ptr, ptr %16, align 8, !tbaa !55
  %98 = getelementptr inbounds i8, ptr %97, i64 4
  store ptr %98, ptr %16, align 8, !tbaa !55
  %99 = load ptr, ptr %15, align 8, !tbaa !60
  %100 = load i32, ptr %12, align 4, !tbaa !47
  %101 = add nsw i32 %100, 0
  %102 = sext i32 %101 to i64
  %103 = getelementptr inbounds i64, ptr %99, i64 %102
  %104 = load i64, ptr %103, align 8, !tbaa !62
  %105 = load ptr, ptr %15, align 8, !tbaa !60
  %106 = load i32, ptr %13, align 4, !tbaa !47
  %107 = add nsw i32 %106, 256
  %108 = sext i32 %107 to i64
  %109 = getelementptr inbounds i64, ptr %105, i64 %108
  %110 = load i64, ptr %109, align 8, !tbaa !62
  %111 = add nsw i64 %104, %110
  %112 = load ptr, ptr %15, align 8, !tbaa !60
  %113 = load i32, ptr %14, align 4, !tbaa !47
  %114 = add nsw i32 %113, 512
  %115 = sext i32 %114 to i64
  %116 = getelementptr inbounds i64, ptr %112, i64 %115
  %117 = load i64, ptr %116, align 8, !tbaa !62
  %118 = add nsw i64 %111, %117
  %119 = ashr i64 %118, 16
  %120 = trunc i64 %119 to i8
  %121 = load ptr, ptr %17, align 8, !tbaa !55
  %122 = load i32, ptr %21, align 4, !tbaa !47
  %123 = zext i32 %122 to i64
  %124 = getelementptr inbounds nuw i8, ptr %121, i64 %123
  store i8 %120, ptr %124, align 1, !tbaa !34
  %125 = load ptr, ptr %15, align 8, !tbaa !60
  %126 = load i32, ptr %12, align 4, !tbaa !47
  %127 = add nsw i32 %126, 768
  %128 = sext i32 %127 to i64
  %129 = getelementptr inbounds i64, ptr %125, i64 %128
  %130 = load i64, ptr %129, align 8, !tbaa !62
  %131 = load ptr, ptr %15, align 8, !tbaa !60
  %132 = load i32, ptr %13, align 4, !tbaa !47
  %133 = add nsw i32 %132, 1024
  %134 = sext i32 %133 to i64
  %135 = getelementptr inbounds i64, ptr %131, i64 %134
  %136 = load i64, ptr %135, align 8, !tbaa !62
  %137 = add nsw i64 %130, %136
  %138 = load ptr, ptr %15, align 8, !tbaa !60
  %139 = load i32, ptr %14, align 4, !tbaa !47
  %140 = add nsw i32 %139, 1280
  %141 = sext i32 %140 to i64
  %142 = getelementptr inbounds i64, ptr %138, i64 %141
  %143 = load i64, ptr %142, align 8, !tbaa !62
  %144 = add nsw i64 %137, %143
  %145 = ashr i64 %144, 16
  %146 = trunc i64 %145 to i8
  %147 = load ptr, ptr %18, align 8, !tbaa !55
  %148 = load i32, ptr %21, align 4, !tbaa !47
  %149 = zext i32 %148 to i64
  %150 = getelementptr inbounds nuw i8, ptr %147, i64 %149
  store i8 %146, ptr %150, align 1, !tbaa !34
  %151 = load ptr, ptr %15, align 8, !tbaa !60
  %152 = load i32, ptr %12, align 4, !tbaa !47
  %153 = add nsw i32 %152, 1280
  %154 = sext i32 %153 to i64
  %155 = getelementptr inbounds i64, ptr %151, i64 %154
  %156 = load i64, ptr %155, align 8, !tbaa !62
  %157 = load ptr, ptr %15, align 8, !tbaa !60
  %158 = load i32, ptr %13, align 4, !tbaa !47
  %159 = add nsw i32 %158, 1536
  %160 = sext i32 %159 to i64
  %161 = getelementptr inbounds i64, ptr %157, i64 %160
  %162 = load i64, ptr %161, align 8, !tbaa !62
  %163 = add nsw i64 %156, %162
  %164 = load ptr, ptr %15, align 8, !tbaa !60
  %165 = load i32, ptr %14, align 4, !tbaa !47
  %166 = add nsw i32 %165, 1792
  %167 = sext i32 %166 to i64
  %168 = getelementptr inbounds i64, ptr %164, i64 %167
  %169 = load i64, ptr %168, align 8, !tbaa !62
  %170 = add nsw i64 %163, %169
  %171 = ashr i64 %170, 16
  %172 = trunc i64 %171 to i8
  %173 = load ptr, ptr %19, align 8, !tbaa !55
  %174 = load i32, ptr %21, align 4, !tbaa !47
  %175 = zext i32 %174 to i64
  %176 = getelementptr inbounds nuw i8, ptr %173, i64 %175
  store i8 %172, ptr %176, align 1, !tbaa !34
  br label %177

177:                                              ; preds = %74
  %178 = load i32, ptr %21, align 4, !tbaa !47
  %179 = add i32 %178, 1
  store i32 %179, ptr %21, align 4, !tbaa !47
  br label %70, !llvm.loop !71

180:                                              ; preds = %70
  br label %32, !llvm.loop !72

181:                                              ; preds = %32
  call void @llvm.lifetime.end.p0(i64 4, ptr %22) #4
  call void @llvm.lifetime.end.p0(i64 4, ptr %21) #4
  call void @llvm.lifetime.end.p0(i64 8, ptr %20) #4
  call void @llvm.lifetime.end.p0(i64 8, ptr %19) #4
  call void @llvm.lifetime.end.p0(i64 8, ptr %18) #4
  call void @llvm.lifetime.end.p0(i64 8, ptr %17) #4
  call void @llvm.lifetime.end.p0(i64 8, ptr %16) #4
  call void @llvm.lifetime.end.p0(i64 8, ptr %15) #4
  call void @llvm.lifetime.end.p0(i64 4, ptr %14) #4
  call void @llvm.lifetime.end.p0(i64 4, ptr %13) #4
  call void @llvm.lifetime.end.p0(i64 4, ptr %12) #4
  call void @llvm.lifetime.end.p0(i64 8, ptr %11) #4
  ret void
}