; Function Attrs: nofree norecurse nosync nounwind memory(readwrite, inaccessiblemem: none) uwtable
define internal void @cmyk_ycck_convert(ptr noundef readonly captures(none) %0, ptr noundef readonly captures(none) %1, ptr noundef readonly captures(none) %2, i32 noundef %3, i32 noundef %4) #2 {
  %6 = getelementptr inbounds nuw i8, ptr %0, i64 472
  %7 = load ptr, ptr %6, align 8, !tbaa !37
  %8 = getelementptr inbounds nuw i8, ptr %7, i64 32
  %9 = load ptr, ptr %8, align 8, !tbaa !55
  %10 = getelementptr inbounds nuw i8, ptr %0, i64 48
  %11 = load i32, ptr %10, align 8, !tbaa !48
  %12 = icmp sgt i32 %4, 0
  br i1 %12, label %.lr.ph56, label %._crit_edge

.lr.ph56:                                         ; preds = %5
  %13 = getelementptr inbounds nuw i8, ptr %2, i64 8
  %14 = getelementptr inbounds nuw i8, ptr %2, i64 16
  %15 = getelementptr inbounds nuw i8, ptr %2, i64 24
  %.not = icmp eq i32 %11, 0
  br i1 %.not, label %._crit_edge, label %.lr.ph.us.preheader

.lr.ph.us.preheader:                              ; preds = %.lr.ph56
  %wide.trip.count = zext i32 %11 to i64
  br label %.lr.ph.us

.lr.ph.us:                                        ; preds = %.lr.ph.us.preheader, %..loopexit_crit_edge.us
  %.in = phi i32 [ %16, %..loopexit_crit_edge.us ], [ %4, %.lr.ph.us.preheader ]
  %.055.us = phi ptr [ %97, %..loopexit_crit_edge.us ], [ %1, %.lr.ph.us.preheader ]
  %.04854.us = phi i32 [ %98, %..loopexit_crit_edge.us ], [ %3, %.lr.ph.us.preheader ]
  %16 = add nsw i32 %.in, -1
  %17 = load ptr, ptr %.055.us, align 8, !tbaa !49
  %18 = load ptr, ptr %2, align 8, !tbaa !51
  %19 = zext i32 %.04854.us to i64
  %20 = getelementptr inbounds nuw ptr, ptr %18, i64 %19
  %21 = load ptr, ptr %20, align 8, !tbaa !49
  %22 = load ptr, ptr %13, align 8, !tbaa !51
  %23 = getelementptr inbounds nuw ptr, ptr %22, i64 %19
  %24 = load ptr, ptr %23, align 8, !tbaa !49
  %25 = load ptr, ptr %14, align 8, !tbaa !51
  %26 = getelementptr inbounds nuw ptr, ptr %25, i64 %19
  %27 = load ptr, ptr %26, align 8, !tbaa !49
  %28 = load ptr, ptr %15, align 8, !tbaa !51
  %29 = getelementptr inbounds nuw ptr, ptr %28, i64 %19
  %30 = load ptr, ptr %29, align 8, !tbaa !49
  br label %31

31:                                               ; preds = %.lr.ph.us, %31
  %indvars.iv = phi i64 [ 0, %.lr.ph.us ], [ %indvars.iv.next, %31 ]
  %.05052.us = phi ptr [ %17, %.lr.ph.us ], [ %46, %31 ]
  %32 = load i8, ptr %.05052.us, align 1, !tbaa !32
  %33 = xor i8 %32, -1
  %34 = zext i8 %33 to i32
  %35 = getelementptr inbounds nuw i8, ptr %.05052.us, i64 1
  %36 = load i8, ptr %35, align 1, !tbaa !32
  %37 = xor i8 %36, -1
  %38 = zext i8 %37 to i32
  %39 = getelementptr inbounds nuw i8, ptr %.05052.us, i64 2
  %40 = load i8, ptr %39, align 1, !tbaa !32
  %41 = xor i8 %40, -1
  %42 = zext i8 %41 to i32
  %43 = getelementptr inbounds nuw i8, ptr %.05052.us, i64 3
  %44 = load i8, ptr %43, align 1, !tbaa !32
  %45 = getelementptr inbounds nuw i8, ptr %30, i64 %indvars.iv
  store i8 %44, ptr %45, align 1, !tbaa !32
  %46 = getelementptr inbounds nuw i8, ptr %.05052.us, i64 4
  %47 = zext i8 %33 to i64
  %48 = getelementptr inbounds nuw i64, ptr %9, i64 %47
  %49 = load i64, ptr %48, align 8, !tbaa !56
  %50 = or disjoint i32 %38, 256
  %51 = zext nneg i32 %50 to i64
  %52 = getelementptr inbounds nuw i64, ptr %9, i64 %51
  %53 = load i64, ptr %52, align 8, !tbaa !56
  %54 = add nsw i64 %53, %49
  %55 = or disjoint i32 %42, 512
  %56 = zext nneg i32 %55 to i64
  %57 = getelementptr inbounds nuw i64, ptr %9, i64 %56
  %58 = load i64, ptr %57, align 8, !tbaa !56
  %59 = add nsw i64 %54, %58
  %60 = lshr i64 %59, 16
  %61 = trunc i64 %60 to i8
  %62 = getelementptr inbounds nuw i8, ptr %21, i64 %indvars.iv
  store i8 %61, ptr %62, align 1, !tbaa !32
  %63 = or disjoint i32 %34, 768
  %64 = zext nneg i32 %63 to i64
  %65 = getelementptr inbounds nuw i64, ptr %9, i64 %64
  %66 = load i64, ptr %65, align 8, !tbaa !56
  %67 = or disjoint i32 %38, 1024
  %68 = zext nneg i32 %67 to i64
  %69 = getelementptr inbounds nuw i64, ptr %9, i64 %68
  %70 = load i64, ptr %69, align 8, !tbaa !56
  %71 = add nsw i64 %70, %66
  %72 = or disjoint i32 %42, 1280
  %73 = zext nneg i32 %72 to i64
  %74 = getelementptr inbounds nuw i64, ptr %9, i64 %73
  %75 = load i64, ptr %74, align 8, !tbaa !56
  %76 = add nsw i64 %71, %75
  %77 = lshr i64 %76, 16
  %78 = trunc i64 %77 to i8
  %79 = getelementptr inbounds nuw i8, ptr %24, i64 %indvars.iv
  store i8 %78, ptr %79, align 1, !tbaa !32
  %80 = or disjoint i32 %34, 1280
  %81 = zext nneg i32 %80 to i64
  %82 = getelementptr inbounds nuw i64, ptr %9, i64 %81
  %83 = load i64, ptr %82, align 8, !tbaa !56
  %84 = or disjoint i32 %38, 1536
  %85 = zext nneg i32 %84 to i64
  %86 = getelementptr inbounds nuw i64, ptr %9, i64 %85
  %87 = load i64, ptr %86, align 8, !tbaa !56
  %88 = add nsw i64 %87, %83
  %89 = or disjoint i32 %42, 1792
  %90 = zext nneg i32 %89 to i64
  %91 = getelementptr inbounds nuw i64, ptr %9, i64 %90
  %92 = load i64, ptr %91, align 8, !tbaa !56
  %93 = add nsw i64 %88, %92
  %94 = lshr i64 %93, 16
  %95 = trunc i64 %94 to i8
  %96 = getelementptr inbounds nuw i8, ptr %27, i64 %indvars.iv
  store i8 %95, ptr %96, align 1, !tbaa !32
  %indvars.iv.next = add nuw nsw i64 %indvars.iv, 1
  %exitcond.not = icmp eq i64 %indvars.iv.next, %wide.trip.count
  br i1 %exitcond.not, label %..loopexit_crit_edge.us, label %31, !llvm.loop !107

..loopexit_crit_edge.us:                          ; preds = %31
  %97 = getelementptr inbounds nuw i8, ptr %.055.us, i64 8
  %98 = add i32 %.04854.us, 1
  %99 = icmp sgt i32 %.in, 1
  br i1 %99, label %.lr.ph.us, label %._crit_edge, !llvm.loop !108

._crit_edge:                                      ; preds = %..loopexit_crit_edge.us, %.lr.ph56, %5
  ret void
}